; Function Attrs: mustprogress uwtable
define hidden noundef range(i32 0, 2) i32 @_ZNK4cvc58internal23BoolSkeletonTermContext12computeValueENS0_12NodeTemplateILb0EEEjm(ptr nonnull readnone align 8 captures(none) %0, ptr noundef readonly captures(none) %1, i32 noundef %2, i64 %3) unnamed_addr #4 align 2 personality ptr @__gxx_personality_v0 {
  %5 = alloca %"class.cvc5::internal::NodeTemplate", align 8
  %6 = icmp eq i32 %2, 0
  br i1 %6, label %7, label %10

7:                                                ; preds = %4
  %8 = load ptr, ptr %1, align 8, !tbaa !3
  store ptr %8, ptr %5, align 8, !tbaa !3
  %9 = call noundef zeroext i1 @_ZN4cvc58internal4expr19isBooleanConnectiveENS0_12NodeTemplateILb0EEE(ptr noundef nonnull %5)
  %not. = xor i1 %9, true
  %. = zext i1 %not. to i32
  br label %10

10:                                               ; preds = %4, %7
  %.0 = phi i32 [ %., %7 ], [ 1, %4 ]
  ret i32 %.0
}